; Function Attrs: mustprogress nofree norecurse nosync nounwind willreturn memory(write, argmem: readwrite, inaccessiblemem: none) uwtable
define dso_local void @resetStringInfo(ptr noundef captures(none) initializes((8, 12), (16, 20)) %0) local_unnamed_addr #1 {
  %2 = load ptr, ptr %0, align 8
  store i8 0, ptr %2, align 1
  %3 = getelementptr inbounds nuw i8, ptr %0, i64 8
  store i32 0, ptr %3, align 8
  %4 = getelementptr inbounds nuw i8, ptr %0, i64 16
  store i32 0, ptr %4, align 8
  ret void
}